target datalayout = "e-m:e-p270:32:32-p271:32:32-p272:64:64-i64:64-i128:128-f80:128-n8:16:32:64-S128"
target triple = "x86_64-unknown-linux-gnu"

%"struct.std::_Rb_tree_header" = type { %"struct.std::_Rb_tree_node_base", i64 }
%"struct.std::_Rb_tree_node_base" = type { i32, ptr, ptr, ptr }
%"class.QuantLib::Date" = type { i64 }
%"class.std::map" = type { %"class.std::_Rb_tree.30" }
%"class.std::_Rb_tree.30" = type { %"struct.std::_Rb_tree<std::__cxx11::basic_string<char>, std::pair<const std::__cxx11::basic_string<char>, boost::any>, std::_Select1st<std::pair<const std::__cxx11::basic_string<char>, boost::any>>, std::less<std::__cxx11::basic_string<char>>>::_Rb_tree_impl" }
%"struct.std::_Rb_tree<std::__cxx11::basic_string<char>, std::pair<const std::__cxx11::basic_string<char>, boost::any>, std::_Select1st<std::pair<const std::__cxx11::basic_string<char>, boost::any>>, std::less<std::__cxx11::basic_string<char>>>::_Rb_tree_impl" = type { [8 x i8], %"struct.std::_Rb_tree_header" }
%"class.QuantLib::CreditDefaultSwap::results" = type { %"class.QuantLib::Instrument::results", double, double, double, double, double, double, double, double }
%"class.QuantLib::Instrument::results" = type { %"class.QuantLib::PricingEngine::results", double, double, %"class.QuantLib::Date", %"class.std::map" }
%"class.QuantLib::PricingEngine::results" = type { ptr }
%"class.QuantLib::Null.62" = type { i8 }

; Function Attrs: mustprogress nounwind uwtable
define linkonce_odr noundef ptr @_ZNKSt8_Rb_treeINSt7__cxx1112basic_stringIcSt11char_traitsIcESaIcEEESt4pairIKS5_N5boost3anyEESt10_Select1stISA_ESt4lessIS5_ESaISA_EE9_M_mbeginEv(ptr noundef nonnull align 8 dereferenceable(48) %this) #1 comdat align 2 {
entry:
  %this.addr = alloca ptr, align 8
  store ptr %this, ptr %this.addr, align 8, !tbaa !3
  %this1 = load ptr, ptr %this.addr, align 8
  %_M_impl = getelementptr inbounds nuw %"class.std::_Rb_tree.30", ptr %this1, i32 0, i32 0
  %add.ptr = getelementptr inbounds i8, ptr %_M_impl, i64 8
  %_M_header = getelementptr inbounds nuw %"struct.std::_Rb_tree_header", ptr %add.ptr, i32 0, i32 0
  %_M_parent = getelementptr inbounds nuw %"struct.std::_Rb_tree_node_base", ptr %_M_header, i32 0, i32 1
  %0 = load ptr, ptr %_M_parent, align 8, !tbaa !155
  ret ptr %0
}

; Function Attrs: mustprogress nounwind uwtable
define linkonce_odr void @_ZNSt15_Rb_tree_header8_M_resetEv(ptr noundef nonnull align 8 dereferenceable(40) %this) #1 comdat align 2 {
entry:
  %this.addr = alloca ptr, align 8
  store ptr %this, ptr %this.addr, align 8, !tbaa !3
  %this1 = load ptr, ptr %this.addr, align 8
  %_M_header = getelementptr inbounds nuw %"struct.std::_Rb_tree_header", ptr %this1, i32 0, i32 0
  %_M_parent = getelementptr inbounds nuw %"struct.std::_Rb_tree_node_base", ptr %_M_header, i32 0, i32 1
  store ptr null, ptr %_M_parent, align 8, !tbaa !155
  %_M_header2 = getelementptr inbounds nuw %"struct.std::_Rb_tree_header", ptr %this1, i32 0, i32 0
  %_M_header3 = getelementptr inbounds nuw %"struct.std::_Rb_tree_header", ptr %this1, i32 0, i32 0
  %_M_left = getelementptr inbounds nuw %"struct.std::_Rb_tree_node_base", ptr %_M_header3, i32 0, i32 2
  store ptr %_M_header2, ptr %_M_left, align 8, !tbaa !156
  %_M_header4 = getelementptr inbounds nuw %"struct.std::_Rb_tree_header", ptr %this1, i32 0, i32 0
  %_M_header5 = getelementptr inbounds nuw %"struct.std::_Rb_tree_header", ptr %this1, i32 0, i32 0
  %_M_right = getelementptr inbounds nuw %"struct.std::_Rb_tree_node_base", ptr %_M_header5, i32 0, i32 3
  store ptr %_M_header4, ptr %_M_right, align 8, !tbaa !157
  %_M_node_count = getelementptr inbounds nuw %"struct.std::_Rb_tree_header", ptr %this1, i32 0, i32 1
  store i64 0, ptr %_M_node_count, align 8, !tbaa !158
  ret void
}

; Function Attrs: mustprogress nounwind uwtable
define linkonce_odr noundef ptr @_ZNSt8_Rb_treeINSt7__cxx1112basic_stringIcSt11char_traitsIcESaIcEEESt4pairIKS5_N5boost3anyEESt10_Select1stISA_ESt4lessIS5_ESaISA_EE8_M_beginEv(ptr noundef nonnull align 8 dereferenceable(48) %this) #1 comdat align 2 {
entry:
  %this.addr = alloca ptr, align 8
  store ptr %this, ptr %this.addr, align 8, !tbaa !3
  %this1 = load ptr, ptr %this.addr, align 8
  %call = call noundef ptr @_ZNKSt8_Rb_treeINSt7__cxx1112basic_stringIcSt11char_traitsIcESaIcEEESt4pairIKS5_N5boost3anyEESt10_Select1stISA_ESt4lessIS5_ESaISA_EE9_M_mbeginEv(ptr noundef nonnull align 8 dereferenceable(48) %this1) #16
  ret ptr %call
}

; Function Attrs: mustprogress nounwind uwtable
define linkonce_odr noundef float @_ZNSt14numeric_limitsIfE3maxEv() #1 comdat align 2 {
entry:
  ret float 0x47EFFFFFE0000000
}

; Function Attrs: mustprogress nounwind uwtable
define linkonce_odr void @_ZNSt8_Rb_treeINSt7__cxx1112basic_stringIcSt11char_traitsIcESaIcEEESt4pairIKS5_N5boost3anyEESt10_Select1stISA_ESt4lessIS5_ESaISA_EE5clearEv(ptr noundef nonnull align 8 dereferenceable(48) %this) #1 comdat align 2 personality ptr @__gxx_personality_v0 {
entry:
  %this.addr = alloca ptr, align 8
  store ptr %this, ptr %this.addr, align 8, !tbaa !3
  %this1 = load ptr, ptr %this.addr, align 8
  %call = call noundef ptr @_ZNSt8_Rb_treeINSt7__cxx1112basic_stringIcSt11char_traitsIcESaIcEEESt4pairIKS5_N5boost3anyEESt10_Select1stISA_ESt4lessIS5_ESaISA_EE8_M_beginEv(ptr noundef nonnull align 8 dereferenceable(48) %this1) #16
  invoke void @_ZNSt8_Rb_treeINSt7__cxx1112basic_stringIcSt11char_traitsIcESaIcEEESt4pairIKS5_N5boost3anyEESt10_Select1stISA_ESt4lessIS5_ESaISA_EE8_M_eraseEPSt13_Rb_tree_nodeISA_E(ptr noundef nonnull align 8 dereferenceable(48) %this1, ptr noundef %call)
          to label %invoke.cont unwind label %terminate.lpad

invoke.cont:                                      ; preds = %entry
  %_M_impl = getelementptr inbounds nuw %"class.std::_Rb_tree.30", ptr %this1, i32 0, i32 0
  %add.ptr = getelementptr inbounds i8, ptr %_M_impl, i64 8
  call void @_ZNSt15_Rb_tree_header8_M_resetEv(ptr noundef nonnull align 8 dereferenceable(40) %add.ptr)
  ret void

terminate.lpad:                                   ; preds = %entry
  %0 = landingpad { ptr, i32 }
          catch ptr null
  %1 = extractvalue { ptr, i32 } %0, 0
  call void @__clang_call_terminate(ptr %1) #24
  unreachable
}

; Function Attrs: mustprogress nounwind uwtable
define linkonce_odr noundef float @_ZN8QuantLib6detail17FloatingPointNullILb1EE9nullValueEv() #1 comdat align 2 {
entry:
  %call = call noundef float @_ZNSt14numeric_limitsIfE3maxEv() #16
  ret float %call
}

; Function Attrs: mustprogress nounwind uwtable
define linkonce_odr void @_ZNSt3mapINSt7__cxx1112basic_stringIcSt11char_traitsIcESaIcEEEN5boost3anyESt4lessIS5_ESaISt4pairIKS5_S7_EEE5clearEv(ptr noundef nonnull align 8 dereferenceable(48) %this) #1 comdat align 2 {
entry:
  %this.addr = alloca ptr, align 8
  store ptr %this, ptr %this.addr, align 8, !tbaa !3
  %this1 = load ptr, ptr %this.addr, align 8
  %_M_t = getelementptr inbounds nuw %"class.std::map", ptr %this1, i32 0, i32 0
  call void @_ZNSt8_Rb_treeINSt7__cxx1112basic_stringIcSt11char_traitsIcESaIcEEESt4pairIKS5_N5boost3anyEESt10_Select1stISA_ESt4lessIS5_ESaISA_EE5clearEv(ptr noundef nonnull align 8 dereferenceable(48) %_M_t) #16
  ret void
}

; Function Attrs: mustprogress uwtable
define linkonce_odr noundef double @_ZNK8QuantLib4NullIdEcvdEv(ptr noundef nonnull align 1 dereferenceable(1) %this) #2 comdat align 2 {
entry:
  %this.addr = alloca ptr, align 8
  store ptr %this, ptr %this.addr, align 8, !tbaa !3
  %call = call noundef float @_ZN8QuantLib6detail17FloatingPointNullILb1EE9nullValueEv()
  %conv = fpext float %call to double
  ret double %conv
}

; Function Attrs: mustprogress uwtable
define linkonce_odr void @_ZN8QuantLib10Instrument7results5resetEv(ptr noundef nonnull align 8 dereferenceable(80) %this) unnamed_addr #2 comdat align 2 {
entry:
  %this.addr = alloca ptr, align 8
  %ref.tmp = alloca %"class.QuantLib::Null.62", align 1
  %ref.tmp2 = alloca %"class.QuantLib::Date", align 8
  store ptr %this, ptr %this.addr, align 8, !tbaa !3
  %this1 = load ptr, ptr %this.addr, align 8
  call void @llvm.lifetime.start.p0(i64 1, ptr %ref.tmp) #16
  %call = call noundef double @_ZNK8QuantLib4NullIdEcvdEv(ptr noundef nonnull align 1 dereferenceable(1) %ref.tmp)
  %errorEstimate = getelementptr inbounds nuw %"class.QuantLib::Instrument::results", ptr %this1, i32 0, i32 2
  store double %call, ptr %errorEstimate, align 8, !tbaa !108
  %value = getelementptr inbounds nuw %"class.QuantLib::Instrument::results", ptr %this1, i32 0, i32 1
  store double %call, ptr %value, align 8, !tbaa !107
  call void @llvm.lifetime.end.p0(i64 1, ptr %ref.tmp) #16
  call void @llvm.lifetime.start.p0(i64 8, ptr %ref.tmp2) #16
  call void @_ZN8QuantLib4DateC1Ev(ptr noundef nonnull align 8 dereferenceable(8) %ref.tmp2)
  %valuationDate = getelementptr inbounds nuw %"class.QuantLib::Instrument::results", ptr %this1, i32 0, i32 3
  call void @llvm.memcpy.p0.p0.i64(ptr align 8 %valuationDate, ptr align 8 %ref.tmp2, i64 8, i1 false), !tbaa.struct !62
  call void @llvm.lifetime.end.p0(i64 8, ptr %ref.tmp2) #16
  %additionalResults = getelementptr inbounds nuw %"class.QuantLib::Instrument::results", ptr %this1, i32 0, i32 4
  call void @_ZNSt3mapINSt7__cxx1112basic_stringIcSt11char_traitsIcESaIcEEEN5boost3anyESt4lessIS5_ESaISt4pairIKS5_S7_EEE5clearEv(ptr noundef nonnull align 8 dereferenceable(48) %additionalResults) #16
  ret void
}

; Function Attrs: mustprogress uwtable
define void @_ZN8QuantLib17CreditDefaultSwap7results5resetEv(ptr noundef nonnull align 8 dereferenceable(144) %this) unnamed_addr #2 align 2 {
entry:
  %this.addr = alloca ptr, align 8
  %ref.tmp = alloca %"class.QuantLib::Null.62", align 1
  %ref.tmp2 = alloca %"class.QuantLib::Null.62", align 1
  %ref.tmp4 = alloca %"class.QuantLib::Null.62", align 1
  %ref.tmp6 = alloca %"class.QuantLib::Null.62", align 1
  %ref.tmp8 = alloca %"class.QuantLib::Null.62", align 1
  %ref.tmp10 = alloca %"class.QuantLib::Null.62", align 1
  %ref.tmp12 = alloca %"class.QuantLib::Null.62", align 1
  %ref.tmp14 = alloca %"class.QuantLib::Null.62", align 1
  store ptr %this, ptr %this.addr, align 8, !tbaa !3
  %this1 = load ptr, ptr %this.addr, align 8
  call void @_ZN8QuantLib10Instrument7results5resetEv(ptr noundef nonnull align 8 dereferenceable(80) %this1)
  call void @llvm.lifetime.start.p0(i64 1, ptr %ref.tmp) #16
  %call = call noundef double @_ZNK8QuantLib4NullIdEcvdEv(ptr noundef nonnull align 1 dereferenceable(1) %ref.tmp)
  %fairSpread = getelementptr inbounds nuw %"class.QuantLib::CreditDefaultSwap::results", ptr %this1, i32 0, i32 1
  store double %call, ptr %fairSpread, align 8, !tbaa !96
  call void @llvm.lifetime.end.p0(i64 1, ptr %ref.tmp) #16
  call void @llvm.lifetime.start.p0(i64 1, ptr %ref.tmp2) #16
  %call3 = call noundef double @_ZNK8QuantLib4NullIdEcvdEv(ptr noundef nonnull align 1 dereferenceable(1) %ref.tmp2)
  %fairUpfront = getelementptr inbounds nuw %"class.QuantLib::CreditDefaultSwap::results", ptr %this1, i32 0, i32 2
  store double %call3, ptr %fairUpfront, align 8, !tbaa !99
  call void @llvm.lifetime.end.p0(i64 1, ptr %ref.tmp2) #16
  call void @llvm.lifetime.start.p0(i64 1, ptr %ref.tmp4) #16
  %call5 = call noundef double @_ZNK8QuantLib4NullIdEcvdEv(ptr noundef nonnull align 1 dereferenceable(1) %ref.tmp4)
  %couponLegBPS = getelementptr inbounds nuw %"class.QuantLib::CreditDefaultSwap::results", ptr %this1, i32 0, i32 3
  store double %call5, ptr %couponLegBPS, align 8, !tbaa !100
  call void @llvm.lifetime.end.p0(i64 1, ptr %ref.tmp4) #16
  call void @llvm.lifetime.start.p0(i64 1, ptr %ref.tmp6) #16
  %call7 = call noundef double @_ZNK8QuantLib4NullIdEcvdEv(ptr noundef nonnull align 1 dereferenceable(1) %ref.tmp6)
  %couponLegNPV = getelementptr inbounds nuw %"class.QuantLib::CreditDefaultSwap::results", ptr %this1, i32 0, i32 4
  store double %call7, ptr %couponLegNPV, align 8, !tbaa !101
  call void @llvm.lifetime.end.p0(i64 1, ptr %ref.tmp6) #16
  call void @llvm.lifetime.start.p0(i64 1, ptr %ref.tmp8) #16
  %call9 = call noundef double @_ZNK8QuantLib4NullIdEcvdEv(ptr noundef nonnull align 1 dereferenceable(1) %ref.tmp8)
  %defaultLegNPV = getelementptr inbounds nuw %"class.QuantLib::CreditDefaultSwap::results", ptr %this1, i32 0, i32 5
  store double %call9, ptr %defaultLegNPV, align 8, !tbaa !102
  call void @llvm.lifetime.end.p0(i64 1, ptr %ref.tmp8) #16
  call void @llvm.lifetime.start.p0(i64 1, ptr %ref.tmp10) #16
  %call11 = call noundef double @_ZNK8QuantLib4NullIdEcvdEv(ptr noundef nonnull align 1 dereferenceable(1) %ref.tmp10)
  %upfrontBPS = getelementptr inbounds nuw %"class.QuantLib::CreditDefaultSwap::results", ptr %this1, i32 0, i32 6
  store double %call11, ptr %upfrontBPS, align 8, !tbaa !104
  call void @llvm.lifetime.end.p0(i64 1, ptr %ref.tmp10) #16
  call void @llvm.lifetime.start.p0(i64 1, ptr %ref.tmp12) #16
  %call13 = call noundef double @_ZNK8QuantLib4NullIdEcvdEv(ptr noundef nonnull align 1 dereferenceable(1) %ref.tmp12)
  %upfrontNPV = getelementptr inbounds nuw %"class.QuantLib::CreditDefaultSwap::results", ptr %this1, i32 0, i32 7
  store double %call13, ptr %upfrontNPV, align 8, !tbaa !103
  call void @llvm.lifetime.end.p0(i64 1, ptr %ref.tmp12) #16
  call void @llvm.lifetime.start.p0(i64 1, ptr %ref.tmp14) #16
  %call15 = call noundef double @_ZNK8QuantLib4NullIdEcvdEv(ptr noundef nonnull align 1 dereferenceable(1) %ref.tmp14)
  %accrualRebateNPV = getelementptr inbounds nuw %"class.QuantLib::CreditDefaultSwap::results", ptr %this1, i32 0, i32 8
  store double %call15, ptr %accrualRebateNPV, align 8, !tbaa !105
  call void @llvm.lifetime.end.p0(i64 1, ptr %ref.tmp14) #16
  ret void
}